ARM GAS  C:\Users\HP\AppData\Local\Temp\ccSj0SJu.s 			page 1


   1              		.syntax unified
   2              		.cpu cortex-m0
   3              		.fpu softvfp
   4              		.eabi_attribute 20, 1
   5              		.eabi_attribute 21, 1
   6              		.eabi_attribute 23, 3
   7              		.eabi_attribute 24, 1
   8              		.eabi_attribute 25, 1
   9              		.eabi_attribute 26, 1
  10              		.eabi_attribute 30, 1
  11              		.eabi_attribute 34, 0
  12              		.eabi_attribute 18, 4
  13              		.thumb
  14              		.syntax unified
  15              		.file	"main.c"
  16              		.text
  17              	.Ltext0:
  18              		.cfi_sections	.debug_frame
  19              		.section	.text.nullify,"ax",%progbits
  20              		.align	2
  21              		.global	nullify
  22              		.code	16
  23              		.thumb_func
  24              		.type	nullify, %function
  25              	nullify:
  26              	.LFB35:
  27              		.file 1 "main.c"
   1:main.c        **** /* ========================================
   2:main.c        ****  *
   3:main.c        ****  * Copyright YOUR COMPANY, THE YEAR
   4:main.c        ****  * All Rights Reserved
   5:main.c        ****  * UNPUBLISHED, LICENSED SOFTWARE.
   6:main.c        ****  *
   7:main.c        ****  * CONFIDENTIAL AND PROPRIETARY INFORMATION
   8:main.c        ****  * WHICH IS THE PROPERTY OF your company.
   9:main.c        ****  *
  10:main.c        ****  * ========================================
  11:main.c        **** */
  12:main.c        **** #include "project.h"
  13:main.c        **** 
  14:main.c        **** typedef enum {
  15:main.c        ****     BASE,
  16:main.c        ****     SHOULDER,
  17:main.c        ****     ELBOW,
  18:main.c        ****     WRIST,
  19:main.c        ****     GRIPPER
  20:main.c        **** } ArmPart;
  21:main.c        **** 
  22:main.c        **** 
  23:main.c        **** void nullify() {
  28              		.loc 1 23 0
  29              		.cfi_startproc
  30              		@ args = 0, pretend = 0, frame = 0
  31              		@ frame_needed = 0, uses_anonymous_args = 0
  32 0000 10B5     		push	{r4, lr}
  33              		.cfi_def_cfa_offset 8
  34              		.cfi_offset 4, -8
ARM GAS  C:\Users\HP\AppData\Local\Temp\ccSj0SJu.s 			page 2


  35              		.cfi_offset 14, -4
  24:main.c        ****     Base_1_Write(0);
  36              		.loc 1 24 0
  37 0002 0020     		movs	r0, #0
  38 0004 FFF7FEFF 		bl	Base_1_Write
  39              	.LVL0:
  25:main.c        ****     Base_2_Write(0);
  40              		.loc 1 25 0
  41 0008 0020     		movs	r0, #0
  42 000a FFF7FEFF 		bl	Base_2_Write
  43              	.LVL1:
  26:main.c        ****     Shoulder_Up_Write(0);
  44              		.loc 1 26 0
  45 000e 0020     		movs	r0, #0
  46 0010 FFF7FEFF 		bl	Shoulder_Up_Write
  47              	.LVL2:
  27:main.c        ****     Shoulder_Down_Write(0);
  48              		.loc 1 27 0
  49 0014 0020     		movs	r0, #0
  50 0016 FFF7FEFF 		bl	Shoulder_Down_Write
  51              	.LVL3:
  28:main.c        ****     Elbow_Up_Write(0);
  52              		.loc 1 28 0
  53 001a 0020     		movs	r0, #0
  54 001c FFF7FEFF 		bl	Elbow_Up_Write
  55              	.LVL4:
  29:main.c        ****     Elbow_Down_Write(0);
  56              		.loc 1 29 0
  57 0020 0020     		movs	r0, #0
  58 0022 FFF7FEFF 		bl	Elbow_Down_Write
  59              	.LVL5:
  30:main.c        ****     Wrist_Up_Write(0);
  60              		.loc 1 30 0
  61 0026 0020     		movs	r0, #0
  62 0028 FFF7FEFF 		bl	Wrist_Up_Write
  63              	.LVL6:
  31:main.c        ****     Wrist_Down_Write(0);
  64              		.loc 1 31 0
  65 002c 0020     		movs	r0, #0
  66 002e FFF7FEFF 		bl	Wrist_Down_Write
  67              	.LVL7:
  32:main.c        ****     Gripper_In_Write(0);
  68              		.loc 1 32 0
  69 0032 0020     		movs	r0, #0
  70 0034 FFF7FEFF 		bl	Gripper_In_Write
  71              	.LVL8:
  33:main.c        ****     Gripper_Out_Write(0);
  72              		.loc 1 33 0
  73 0038 0020     		movs	r0, #0
  74 003a FFF7FEFF 		bl	Gripper_Out_Write
  75              	.LVL9:
  34:main.c        **** }
  76              		.loc 1 34 0
  77              		@ sp needed
  78 003e 10BD     		pop	{r4, pc}
  79              		.cfi_endproc
  80              	.LFE35:
ARM GAS  C:\Users\HP\AppData\Local\Temp\ccSj0SJu.s 			page 3


  81              		.size	nullify, .-nullify
  82              		.section	.text.activateMotor,"ax",%progbits
  83              		.align	2
  84              		.global	activateMotor
  85              		.code	16
  86              		.thumb_func
  87              		.type	activateMotor, %function
  88              	activateMotor:
  89              	.LFB36:
  35:main.c        **** void activateMotor(ArmPart a, int direction) {
  90              		.loc 1 35 0
  91              		.cfi_startproc
  92              		@ args = 0, pretend = 0, frame = 0
  93              		@ frame_needed = 0, uses_anonymous_args = 0
  94              	.LVL10:
  95 0000 70B5     		push	{r4, r5, r6, lr}
  96              		.cfi_def_cfa_offset 16
  97              		.cfi_offset 4, -16
  98              		.cfi_offset 5, -12
  99              		.cfi_offset 6, -8
 100              		.cfi_offset 14, -4
 101 0002 0400     		movs	r4, r0
 102 0004 0D00     		movs	r5, r1
  36:main.c        ****     nullify();
 103              		.loc 1 36 0
 104 0006 FFF7FEFF 		bl	nullify
 105              	.LVL11:
  37:main.c        ****     switch(a) {
 106              		.loc 1 37 0
 107 000a 032C     		cmp	r4, #3
 108 000c 0ED1     		bne	.L2
  38:main.c        ****         case WRIST:
  39:main.c        ****             if(direction == 0) {
 109              		.loc 1 39 0
 110 000e 002D     		cmp	r5, #0
 111 0010 06D1     		bne	.L5
  40:main.c        ****                 Wrist_Up_Write(0);
 112              		.loc 1 40 0
 113 0012 0020     		movs	r0, #0
 114 0014 FFF7FEFF 		bl	Wrist_Up_Write
 115              	.LVL12:
  41:main.c        ****                 Wrist_Down_Write(1);
 116              		.loc 1 41 0
 117 0018 0120     		movs	r0, #1
 118 001a FFF7FEFF 		bl	Wrist_Down_Write
 119              	.LVL13:
 120 001e 05E0     		b	.L2
 121              	.L5:
  42:main.c        ****             }
  43:main.c        ****             else {
  44:main.c        ****                 Wrist_Up_Write(1);
 122              		.loc 1 44 0
 123 0020 0120     		movs	r0, #1
 124 0022 FFF7FEFF 		bl	Wrist_Up_Write
 125              	.LVL14:
  45:main.c        ****                 Wrist_Down_Write(0);
 126              		.loc 1 45 0
ARM GAS  C:\Users\HP\AppData\Local\Temp\ccSj0SJu.s 			page 4


 127 0026 0020     		movs	r0, #0
 128 0028 FFF7FEFF 		bl	Wrist_Down_Write
 129              	.LVL15:
 130              	.L2:
  46:main.c        ****             }
  47:main.c        ****             break;
  48:main.c        ****         case ELBOW:
  49:main.c        ****             break;
  50:main.c        ****         case SHOULDER:
  51:main.c        ****             break;
  52:main.c        ****         case BASE:
  53:main.c        ****             break;
  54:main.c        ****         case GRIPPER:
  55:main.c        ****             break;
  56:main.c        ****     }
  57:main.c        **** }
 131              		.loc 1 57 0
 132              		@ sp needed
 133              	.LVL16:
 134 002c 70BD     		pop	{r4, r5, r6, pc}
 135              		.cfi_endproc
 136              	.LFE36:
 137              		.size	activateMotor, .-activateMotor
 138 002e C046     		.section	.text.main,"ax",%progbits
 139              		.align	2
 140              		.global	main
 141              		.code	16
 142              		.thumb_func
 143              		.type	main, %function
 144              	main:
 145              	.LFB37:
  58:main.c        **** int main(void)
  59:main.c        **** {
 146              		.loc 1 59 0
 147              		.cfi_startproc
 148              		@ args = 0, pretend = 0, frame = 0
 149              		@ frame_needed = 0, uses_anonymous_args = 0
 150 0000 70B5     		push	{r4, r5, r6, lr}
 151              		.cfi_def_cfa_offset 16
 152              		.cfi_offset 4, -16
 153              		.cfi_offset 5, -12
 154              		.cfi_offset 6, -8
 155              		.cfi_offset 14, -4
  60:main.c        ****     CyGlobalIntEnable;
 156              		.loc 1 60 0
 157              		.syntax divided
 158              	@ 60 "main.c" 1
 159 0002 62B6     		CPSIE   i
 160              	@ 0 "" 2
  61:main.c        ****     UART_Start();
 161              		.loc 1 61 0
 162              		.thumb
 163              		.syntax unified
 164 0004 FFF7FEFF 		bl	UART_Start
 165              	.LVL17:
  62:main.c        ****     UART_UartPutString("UART Started");
 166              		.loc 1 62 0
ARM GAS  C:\Users\HP\AppData\Local\Temp\ccSj0SJu.s 			page 5


 167 0008 3D48     		ldr	r0, .L21
 168 000a FFF7FEFF 		bl	UART_UartPutString
 169              	.LVL18:
 170              	.L7:
  63:main.c        ****     
  64:main.c        ****     char ch = ' ';
  65:main.c        ****     
  66:main.c        ****     for(;;)
  67:main.c        ****     {
  68:main.c        ****         ch = UART_UartGetChar();
 171              		.loc 1 68 0
 172 000e FFF7FEFF 		bl	UART_UartGetChar
 173              	.LVL19:
 174 0012 C5B2     		uxtb	r5, r0
 175              	.LVL20:
 176 0014 FF24     		movs	r4, #255
 177 0016 0440     		ands	r4, r0
  69:main.c        ****         UART_UartPutChar(ch);
 178              		.loc 1 69 0
 179 0018 2000     		movs	r0, r4
 180 001a FFF7FEFF 		bl	UART_SpiUartWriteTxData
 181              	.LVL21:
  70:main.c        ****         if(ch == ' ')
 182              		.loc 1 70 0
 183 001e 202D     		cmp	r5, #32
 184 0020 F5D0     		beq	.L7
  71:main.c        ****             continue;
  72:main.c        ****         switch(ch) {
 185              		.loc 1 72 0
 186 0022 2000     		movs	r0, r4
 187 0024 4138     		subs	r0, r0, #65
 188 0026 3628     		cmp	r0, #54
 189 0028 67D8     		bhi	.L9
 190 002a 8000     		lsls	r0, r0, #2
 191 002c 354B     		ldr	r3, .L21+4
 192 002e 1B58     		ldr	r3, [r3, r0]
 193 0030 9F46     		mov	pc, r3
 194              		.section	.rodata
 195              		.align	2
 196              	.L11:
 197 0000 82000000 		.word	.L10
 198 0004 FA000000 		.word	.L9
 199 0008 FA000000 		.word	.L9
 200 000c 96000000 		.word	.L12
 201 0010 5A000000 		.word	.L13
 202 0014 FA000000 		.word	.L9
 203 0018 FA000000 		.word	.L9
 204 001c FA000000 		.word	.L9
 205 0020 AA000000 		.word	.L14
 206 0024 D2000000 		.word	.L15
 207 0028 BE000000 		.word	.L16
 208 002c E6000000 		.word	.L17
 209 0030 FA000000 		.word	.L9
 210 0034 FA000000 		.word	.L9
 211 0038 FA000000 		.word	.L9
 212 003c FA000000 		.word	.L9
 213 0040 46000000 		.word	.L18
ARM GAS  C:\Users\HP\AppData\Local\Temp\ccSj0SJu.s 			page 6


 214 0044 FA000000 		.word	.L9
 215 0048 6E000000 		.word	.L19
 216 004c FA000000 		.word	.L9
 217 0050 FA000000 		.word	.L9
 218 0054 FA000000 		.word	.L9
 219 0058 32000000 		.word	.L20
 220 005c FA000000 		.word	.L9
 221 0060 FA000000 		.word	.L9
 222 0064 FA000000 		.word	.L9
 223 0068 FA000000 		.word	.L9
 224 006c FA000000 		.word	.L9
 225 0070 FA000000 		.word	.L9
 226 0074 FA000000 		.word	.L9
 227 0078 FA000000 		.word	.L9
 228 007c FA000000 		.word	.L9
 229 0080 82000000 		.word	.L10
 230 0084 FA000000 		.word	.L9
 231 0088 FA000000 		.word	.L9
 232 008c 96000000 		.word	.L12
 233 0090 5A000000 		.word	.L13
 234 0094 FA000000 		.word	.L9
 235 0098 FA000000 		.word	.L9
 236 009c FA000000 		.word	.L9
 237 00a0 AA000000 		.word	.L14
 238 00a4 D2000000 		.word	.L15
 239 00a8 BE000000 		.word	.L16
 240 00ac E6000000 		.word	.L17
 241 00b0 FA000000 		.word	.L9
 242 00b4 FA000000 		.word	.L9
 243 00b8 FA000000 		.word	.L9
 244 00bc FA000000 		.word	.L9
 245 00c0 46000000 		.word	.L18
 246 00c4 FA000000 		.word	.L9
 247 00c8 6E000000 		.word	.L19
 248 00cc FA000000 		.word	.L9
 249 00d0 FA000000 		.word	.L9
 250 00d4 FA000000 		.word	.L9
 251 00d8 32000000 		.word	.L20
 252              		.section	.text.main
 253              	.L20:
  73:main.c        ****             case 'w':
  74:main.c        ****             case 'W':
  75:main.c        ****                 // activateMotor(ELBOW, 1);
  76:main.c        ****                 Elbow_Up_Write(1);
 254              		.loc 1 76 0
 255 0032 0120     		movs	r0, #1
 256 0034 FFF7FEFF 		bl	Elbow_Up_Write
 257              	.LVL22:
  77:main.c        ****                 Elbow_Down_Write(0);
 258              		.loc 1 77 0
 259 0038 0020     		movs	r0, #0
 260 003a FFF7FEFF 		bl	Elbow_Down_Write
 261              	.LVL23:
  78:main.c        ****                 CyDelay(50);
 262              		.loc 1 78 0
 263 003e 3220     		movs	r0, #50
 264 0040 FFF7FEFF 		bl	CyDelay
ARM GAS  C:\Users\HP\AppData\Local\Temp\ccSj0SJu.s 			page 7


 265              	.LVL24:
  79:main.c        ****                 break;
 266              		.loc 1 79 0
 267 0044 E3E7     		b	.L7
 268              	.L18:
  80:main.c        ****             case 'q':
  81:main.c        ****             case 'Q':
  82:main.c        ****                 Shoulder_Up_Write(1);
 269              		.loc 1 82 0
 270 0046 0120     		movs	r0, #1
 271 0048 FFF7FEFF 		bl	Shoulder_Up_Write
 272              	.LVL25:
  83:main.c        ****                 Shoulder_Down_Write(0);
 273              		.loc 1 83 0
 274 004c 0020     		movs	r0, #0
 275 004e FFF7FEFF 		bl	Shoulder_Down_Write
 276              	.LVL26:
  84:main.c        ****                 CyDelay(50);
 277              		.loc 1 84 0
 278 0052 3220     		movs	r0, #50
 279 0054 FFF7FEFF 		bl	CyDelay
 280              	.LVL27:
  85:main.c        ****                 break;
 281              		.loc 1 85 0
 282 0058 D9E7     		b	.L7
 283              	.L13:
  86:main.c        ****             case 'e':
  87:main.c        ****             case 'E':
  88:main.c        ****                 Shoulder_Down_Write(1);
 284              		.loc 1 88 0
 285 005a 0120     		movs	r0, #1
 286 005c FFF7FEFF 		bl	Shoulder_Down_Write
 287              	.LVL28:
  89:main.c        ****                 Shoulder_Up_Write(0);
 288              		.loc 1 89 0
 289 0060 0020     		movs	r0, #0
 290 0062 FFF7FEFF 		bl	Shoulder_Up_Write
 291              	.LVL29:
  90:main.c        ****                 CyDelay(50);
 292              		.loc 1 90 0
 293 0066 3220     		movs	r0, #50
 294 0068 FFF7FEFF 		bl	CyDelay
 295              	.LVL30:
  91:main.c        ****                 break;
 296              		.loc 1 91 0
 297 006c CFE7     		b	.L7
 298              	.L19:
  92:main.c        ****             case 's':
  93:main.c        ****             case 'S':
  94:main.c        ****                 Elbow_Down_Write(1);
 299              		.loc 1 94 0
 300 006e 0120     		movs	r0, #1
 301 0070 FFF7FEFF 		bl	Elbow_Down_Write
 302              	.LVL31:
  95:main.c        ****                 Elbow_Up_Write(0);
 303              		.loc 1 95 0
 304 0074 0020     		movs	r0, #0
ARM GAS  C:\Users\HP\AppData\Local\Temp\ccSj0SJu.s 			page 8


 305 0076 FFF7FEFF 		bl	Elbow_Up_Write
 306              	.LVL32:
  96:main.c        ****                 CyDelay(50);
 307              		.loc 1 96 0
 308 007a 3220     		movs	r0, #50
 309 007c FFF7FEFF 		bl	CyDelay
 310              	.LVL33:
  97:main.c        ****                 break;
 311              		.loc 1 97 0
 312 0080 C5E7     		b	.L7
 313              	.L10:
  98:main.c        ****             case 'a':
  99:main.c        ****             case 'A':
 100:main.c        ****                 Base_1_Write(0);
 314              		.loc 1 100 0
 315 0082 0020     		movs	r0, #0
 316 0084 FFF7FEFF 		bl	Base_1_Write
 317              	.LVL34:
 101:main.c        ****                 Base_2_Write(1);
 318              		.loc 1 101 0
 319 0088 0120     		movs	r0, #1
 320 008a FFF7FEFF 		bl	Base_2_Write
 321              	.LVL35:
 102:main.c        ****                 CyDelay(50);
 322              		.loc 1 102 0
 323 008e 3220     		movs	r0, #50
 324 0090 FFF7FEFF 		bl	CyDelay
 325              	.LVL36:
 103:main.c        ****                 break;
 326              		.loc 1 103 0
 327 0094 BBE7     		b	.L7
 328              	.L12:
 104:main.c        ****             case 'd':
 105:main.c        ****             case'D':
 106:main.c        ****                 Base_1_Write(1);
 329              		.loc 1 106 0
 330 0096 0120     		movs	r0, #1
 331 0098 FFF7FEFF 		bl	Base_1_Write
 332              	.LVL37:
 107:main.c        ****                 Base_2_Write(0);
 333              		.loc 1 107 0
 334 009c 0020     		movs	r0, #0
 335 009e FFF7FEFF 		bl	Base_2_Write
 336              	.LVL38:
 108:main.c        ****                 CyDelay(50);
 337              		.loc 1 108 0
 338 00a2 3220     		movs	r0, #50
 339 00a4 FFF7FEFF 		bl	CyDelay
 340              	.LVL39:
 109:main.c        ****                 break;
 341              		.loc 1 109 0
 342 00a8 B1E7     		b	.L7
 343              	.L14:
 110:main.c        ****             case 'i':
 111:main.c        ****             case 'I':
 112:main.c        ****                 Wrist_Up_Write(1);
 344              		.loc 1 112 0
ARM GAS  C:\Users\HP\AppData\Local\Temp\ccSj0SJu.s 			page 9


 345 00aa 0120     		movs	r0, #1
 346 00ac FFF7FEFF 		bl	Wrist_Up_Write
 347              	.LVL40:
 113:main.c        ****                 Wrist_Down_Write(0);
 348              		.loc 1 113 0
 349 00b0 0020     		movs	r0, #0
 350 00b2 FFF7FEFF 		bl	Wrist_Down_Write
 351              	.LVL41:
 114:main.c        ****                 CyDelay(50);
 352              		.loc 1 114 0
 353 00b6 3220     		movs	r0, #50
 354 00b8 FFF7FEFF 		bl	CyDelay
 355              	.LVL42:
 115:main.c        ****                 break;
 356              		.loc 1 115 0
 357 00bc A7E7     		b	.L7
 358              	.L16:
 116:main.c        ****             case 'k':
 117:main.c        ****             case 'K':
 118:main.c        ****                 Wrist_Down_Write(1);
 359              		.loc 1 118 0
 360 00be 0120     		movs	r0, #1
 361 00c0 FFF7FEFF 		bl	Wrist_Down_Write
 362              	.LVL43:
 119:main.c        ****                 Wrist_Up_Write(0);
 363              		.loc 1 119 0
 364 00c4 0020     		movs	r0, #0
 365 00c6 FFF7FEFF 		bl	Wrist_Up_Write
 366              	.LVL44:
 120:main.c        ****                 CyDelay(50);
 367              		.loc 1 120 0
 368 00ca 3220     		movs	r0, #50
 369 00cc FFF7FEFF 		bl	CyDelay
 370              	.LVL45:
 121:main.c        ****                 break;
 371              		.loc 1 121 0
 372 00d0 9DE7     		b	.L7
 373              	.L15:
 122:main.c        ****             case 'j':
 123:main.c        ****             case 'J':
 124:main.c        ****                 Gripper_In_Write(1);
 374              		.loc 1 124 0
 375 00d2 0120     		movs	r0, #1
 376 00d4 FFF7FEFF 		bl	Gripper_In_Write
 377              	.LVL46:
 125:main.c        ****                 Gripper_Out_Write(0);
 378              		.loc 1 125 0
 379 00d8 0020     		movs	r0, #0
 380 00da FFF7FEFF 		bl	Gripper_Out_Write
 381              	.LVL47:
 126:main.c        ****                 CyDelay(50);
 382              		.loc 1 126 0
 383 00de 3220     		movs	r0, #50
 384 00e0 FFF7FEFF 		bl	CyDelay
 385              	.LVL48:
 127:main.c        ****                 break;
 386              		.loc 1 127 0
ARM GAS  C:\Users\HP\AppData\Local\Temp\ccSj0SJu.s 			page 10


 387 00e4 93E7     		b	.L7
 388              	.L17:
 128:main.c        ****             case 'l':
 129:main.c        ****             case 'L':
 130:main.c        ****                 Gripper_Out_Write(1);
 389              		.loc 1 130 0
 390 00e6 0120     		movs	r0, #1
 391 00e8 FFF7FEFF 		bl	Gripper_Out_Write
 392              	.LVL49:
 131:main.c        ****                 Gripper_In_Write(0);
 393              		.loc 1 131 0
 394 00ec 0020     		movs	r0, #0
 395 00ee FFF7FEFF 		bl	Gripper_In_Write
 396              	.LVL50:
 132:main.c        ****                 CyDelay(50);
 397              		.loc 1 132 0
 398 00f2 3220     		movs	r0, #50
 399 00f4 FFF7FEFF 		bl	CyDelay
 400              	.LVL51:
 133:main.c        ****                 break;
 401              		.loc 1 133 0
 402 00f8 89E7     		b	.L7
 403              	.L9:
 134:main.c        ****             default:
 135:main.c        ****                 nullify();
 404              		.loc 1 135 0
 405 00fa FFF7FEFF 		bl	nullify
 406              	.LVL52:
 136:main.c        ****                 break;
 407              		.loc 1 136 0
 408 00fe 86E7     		b	.L7
 409              	.L22:
 410              		.align	2
 411              	.L21:
 412 0100 00000000 		.word	.LC0
 413 0104 00000000 		.word	.L11
 414              		.cfi_endproc
 415              	.LFE37:
 416              		.size	main, .-main
 417              		.section	.rodata.str1.4,"aMS",%progbits,1
 418              		.align	2
 419              	.LC0:
 420 0000 55415254 		.ascii	"UART Started\000"
 420      20537461 
 420      72746564 
 420      00
 421              		.text
 422              	.Letext0:
 423              		.file 2 "Generated_Source\\PSoC4/cytypes.h"
 424              		.file 3 "Generated_Source\\PSoC4/Base_1.h"
 425              		.file 4 "Generated_Source\\PSoC4/Base_2.h"
 426              		.file 5 "Generated_Source\\PSoC4/Shoulder_Up.h"
 427              		.file 6 "Generated_Source\\PSoC4/Shoulder_Down.h"
 428              		.file 7 "Generated_Source\\PSoC4/Elbow_Up.h"
 429              		.file 8 "Generated_Source\\PSoC4/Elbow_Down.h"
 430              		.file 9 "Generated_Source\\PSoC4/Wrist_Up.h"
 431              		.file 10 "Generated_Source\\PSoC4/Wrist_Down.h"
ARM GAS  C:\Users\HP\AppData\Local\Temp\ccSj0SJu.s 			page 11


 432              		.file 11 "Generated_Source\\PSoC4/Gripper_In.h"
 433              		.file 12 "Generated_Source\\PSoC4/Gripper_Out.h"
 434              		.file 13 "Generated_Source\\PSoC4/UART.h"
 435              		.file 14 "Generated_Source\\PSoC4/UART_SPI_UART.h"
 436              		.file 15 "Generated_Source\\PSoC4/CyLib.h"